target datalayout = "e-m:e-p270:32:32-p271:32:32-p272:64:64-i64:64-i128:128-f80:128-n8:16:32:64-S128"
target triple = "x86_64-unknown-linux-gnu"

%"class.rocksdb::BuiltinFilterBitsBuilder" = type { %"class.rocksdb::FilterBitsBuilder" }
%"class.rocksdb::FilterBitsBuilder" = type { ptr }
%"class.rocksdb::(anonymous namespace)::LegacyBloomBitsBuilder" = type { %"class.rocksdb::BuiltinFilterBitsBuilder", i32, i32, %"class.std::vector.37", ptr }
%"class.std::vector.37" = type { %"struct.std::_Vector_base.38" }
%"struct.std::_Vector_base.38" = type { %"struct.std::_Vector_base<unsigned int, std::allocator<unsigned int>>::_Vector_impl" }
%"struct.std::_Vector_base<unsigned int, std::allocator<unsigned int>>::_Vector_impl" = type { %"struct.std::_Vector_base<unsigned int, std::allocator<unsigned int>>::_Vector_impl_data" }
%"struct.std::_Vector_base<unsigned int, std::allocator<unsigned int>>::_Vector_impl_data" = type { ptr, ptr, ptr }

; Function Attrs: mustprogress nounwind uwtable
define linkonce_odr noundef nonnull align 8 dereferenceable(8) ptr @_ZSt3minImERKT_S2_S2_(ptr noundef nonnull align 8 dereferenceable(8) %__a, ptr noundef nonnull align 8 dereferenceable(8) %__b) #1 comdat {
entry:
  %retval = alloca ptr, align 8
  %__a.addr = alloca ptr, align 8
  %__b.addr = alloca ptr, align 8
  store ptr %__a, ptr %__a.addr, align 8
  store ptr %__b, ptr %__b.addr, align 8
  %0 = load ptr, ptr %__b.addr, align 8
  %1 = load i64, ptr %0, align 8
  %2 = load ptr, ptr %__a.addr, align 8
  %3 = load i64, ptr %2, align 8
  %cmp = icmp ult i64 %1, %3
  br i1 %cmp, label %if.then, label %if.end

if.then:                                          ; preds = %entry
  %4 = load ptr, ptr %__b.addr, align 8
  store ptr %4, ptr %retval, align 8
  br label %return

if.end:                                           ; preds = %entry
  %5 = load ptr, ptr %__a.addr, align 8
  store ptr %5, ptr %retval, align 8
  br label %return

return:                                           ; preds = %if.end, %if.then
  %6 = load ptr, ptr %retval, align 8
  ret ptr %6
}

; Function Attrs: mustprogress uwtable
define internal noundef i64 @_ZN7rocksdb12_GLOBAL__N_122LegacyBloomBitsBuilder21ApproximateNumEntriesEm(ptr noundef nonnull align 8 dereferenceable(48) %this, i64 noundef %bytes) unnamed_addr #0 align 2 {
entry:
  %this.addr = alloca ptr, align 8
  %bytes.addr = alloca i64, align 8
  %total_bits_tmp = alloca i64, align 8
  %ref.tmp = alloca i64, align 8
  %high = alloca i32, align 4
  %low = alloca i32, align 4
  %n = alloca i32, align 4
  store ptr %this, ptr %this.addr, align 8
  store i64 %bytes, ptr %bytes.addr, align 8
  %this1 = load ptr, ptr %this.addr, align 8
  %0 = load i64, ptr %bytes.addr, align 8
  %mul = mul i64 %0, 8
  store i64 %mul, ptr %total_bits_tmp, align 8
  store i64 4294901760, ptr %ref.tmp, align 8
  %call = call noundef nonnull align 8 dereferenceable(8) ptr @_ZSt3minImERKT_S2_S2_(ptr noundef nonnull align 8 dereferenceable(8) %total_bits_tmp, ptr noundef nonnull align 8 dereferenceable(8) %ref.tmp)
  %1 = load i64, ptr %call, align 8
  store i64 %1, ptr %total_bits_tmp, align 8
  %2 = load i64, ptr %total_bits_tmp, align 8
  %conv = trunc i64 %2 to i32
  %bits_per_key_ = getelementptr inbounds %"class.rocksdb::(anonymous namespace)::LegacyBloomBitsBuilder", ptr %this1, i32 0, i32 1
  %3 = load i32, ptr %bits_per_key_, align 8
  %div = udiv i32 %conv, %3
  %add = add i32 %div, 1
  store i32 %add, ptr %high, align 4
  store i32 1, ptr %low, align 4
  %4 = load i32, ptr %high, align 4
  store i32 %4, ptr %n, align 4
  br label %for.cond

for.cond:                                         ; preds = %for.inc, %entry
  %5 = load i32, ptr %n, align 4
  %6 = load i32, ptr %low, align 4
  %cmp = icmp uge i32 %5, %6
  br i1 %cmp, label %for.body, label %for.end

for.body:                                         ; preds = %for.cond
  %7 = load i32, ptr %n, align 4
  %conv2 = zext i32 %7 to i64
  %vtable = load ptr, ptr %this1, align 8
  %vfn = getelementptr inbounds ptr, ptr %vtable, i64 8
  %8 = load ptr, ptr %vfn, align 8
  %call3 = call noundef i64 %8(ptr noundef nonnull align 8 dereferenceable(48) %this1, i64 noundef %conv2)
  %9 = load i64, ptr %bytes.addr, align 8
  %cmp4 = icmp ule i64 %call3, %9
  br i1 %cmp4, label %if.then, label %if.end

if.then:                                          ; preds = %for.body
  br label %for.end

if.end:                                           ; preds = %for.body
  br label %for.inc

for.inc:                                          ; preds = %if.end
  %10 = load i32, ptr %n, align 4
  %dec = add i32 %10, -1
  store i32 %dec, ptr %n, align 4
  br label %for.cond, !llvm.loop !18

for.end:                                          ; preds = %if.then, %for.cond
  %11 = load i32, ptr %n, align 4
  %conv5 = zext i32 %11 to i64
  ret i64 %conv5
}