; Function Attrs: mustprogress uwtable
define internal noundef i64 @_ZN7rocksdb12_GLOBAL__N_122LegacyBloomBitsBuilder21ApproximateNumEntriesEm(ptr noundef nonnull align 8 dereferenceable(48) %this, i64 noundef %bytes) unnamed_addr #3 align 2 {
entry:
  %mul = shl i64 %bytes, 3
  %.sroa.speculated = tail call i64 @llvm.umin.i64(i64 %mul, i64 4294901760)
  %bits_per_key_ = getelementptr inbounds i8, ptr %this, i64 8
  %0 = load i32, ptr %bits_per_key_, align 8
  %.lhs.trunc = trunc i64 %.sroa.speculated to i32
  %1 = udiv i32 %.lhs.trunc, %0
  %.zext = zext i32 %1 to i64
  %2 = add nuw nsw i64 %.zext, 1
  br label %for.body

for.body:                                         ; preds = %entry, %for.inc
  %indvars.iv = phi i64 [ %2, %entry ], [ %indvars.iv.next, %for.inc ]
  %vtable = load ptr, ptr %this, align 8
  %vfn = getelementptr inbounds i8, ptr %vtable, i64 64
  %3 = load ptr, ptr %vfn, align 8
  %call3 = tail call noundef i64 %3(ptr noundef nonnull align 8 dereferenceable(48) %this, i64 noundef %indvars.iv)
  %cmp4.not = icmp ugt i64 %call3, %bytes
  br i1 %cmp4.not, label %for.inc, label %for.end

for.inc:                                          ; preds = %for.body
  %indvars.iv.next = add nsw i64 %indvars.iv, -1
  %cmp.not = icmp eq i64 %indvars.iv.next, 0
  br i1 %cmp.not, label %for.end, label %for.body, !llvm.loop !124

for.end:                                          ; preds = %for.body, %for.inc
  %n.0.lcssa = phi i64 [ %indvars.iv, %for.body ], [ 0, %for.inc ]
  %conv5 = and i64 %n.0.lcssa, 4294967295
  ret i64 %conv5
}